target datalayout = "e-m:e-p270:32:32-p271:32:32-p272:64:64-i64:64-i128:128-f80:128-n8:16:32:64-S128"
target triple = "x86_64-pc-linux-gnu"

%struct._packet_info = type { ptr, ptr, i32, i32, %struct.nstime_t, %struct.nstime_t, %struct.nstime_t, i32, ptr, ptr, ptr, ptr, %struct._address, %struct._address, %struct._address, %struct._address, %struct._address, %struct._address, i32, ptr, i32, %struct.anon, i32, i32, i32, i32, ptr, i32, ptr, ptr, i16, i16, i32, i32, i16, i32, i32, ptr, ptr, ptr, i8, i8, i16, i16, i16, i32, i16, i16, ptr, ptr, ptr, ptr, ptr, i32 }
%struct.nstime_t = type { i64, i32 }
%struct._address = type { i32, i32, ptr, ptr }
%struct.anon = type { i8, [3 x i8] }
%struct.tcp_multisegment_pdu = type { i32, i32, i32, i32, %struct.nstime_t, i32, i32 }

; Function Attrs: nounwind uwtable
define hidden ptr @pdu_store_sequencenumber_of_next_pdu(ptr noundef %0, i32 noundef %1, i32 noundef %2, ptr noundef %3) #0 {
  %5 = alloca ptr, align 8
  %6 = alloca i32, align 4
  %7 = alloca i32, align 4
  %8 = alloca ptr, align 8
  %9 = alloca ptr, align 8
  store ptr %0, ptr %5, align 8
  store i32 %1, ptr %6, align 4
  store i32 %2, ptr %7, align 4
  store ptr %3, ptr %8, align 8
  %10 = call ptr @wmem_file_scope()
  %11 = call noalias ptr @wmem_alloc(ptr noundef %10, i64 noundef 40)
  store ptr %11, ptr %9, align 8
  %12 = load i32, ptr %7, align 4
  %13 = load ptr, ptr %9, align 8
  %14 = getelementptr inbounds %struct.tcp_multisegment_pdu, ptr %13, i32 0, i32 1
  store i32 %12, ptr %14, align 4
  %15 = load i32, ptr %6, align 4
  %16 = load ptr, ptr %9, align 8
  %17 = getelementptr inbounds %struct.tcp_multisegment_pdu, ptr %16, i32 0, i32 0
  store i32 %15, ptr %17, align 8
  %18 = load ptr, ptr %5, align 8
  %19 = getelementptr inbounds %struct._packet_info, ptr %18, i32 0, i32 3
  %20 = load i32, ptr %19, align 4
  %21 = load ptr, ptr %9, align 8
  %22 = getelementptr inbounds %struct.tcp_multisegment_pdu, ptr %21, i32 0, i32 2
  store i32 %20, ptr %22, align 8
  %23 = load ptr, ptr %5, align 8
  %24 = getelementptr inbounds %struct._packet_info, ptr %23, i32 0, i32 3
  %25 = load i32, ptr %24, align 4
  %26 = load ptr, ptr %9, align 8
  %27 = getelementptr inbounds %struct.tcp_multisegment_pdu, ptr %26, i32 0, i32 5
  store i32 %25, ptr %27, align 8
  %28 = load ptr, ptr %5, align 8
  %29 = getelementptr inbounds %struct._packet_info, ptr %28, i32 0, i32 3
  %30 = load i32, ptr %29, align 4
  %31 = load ptr, ptr %9, align 8
  %32 = getelementptr inbounds %struct.tcp_multisegment_pdu, ptr %31, i32 0, i32 3
  store i32 %30, ptr %32, align 4
  %33 = load ptr, ptr %9, align 8
  %34 = getelementptr inbounds %struct.tcp_multisegment_pdu, ptr %33, i32 0, i32 4
  %35 = load ptr, ptr %5, align 8
  %36 = getelementptr inbounds %struct._packet_info, ptr %35, i32 0, i32 4
  call void @llvm.memcpy.p0.p0.i64(ptr align 8 %34, ptr align 8 %36, i64 16, i1 false)
  %37 = load ptr, ptr %9, align 8
  %38 = getelementptr inbounds %struct.tcp_multisegment_pdu, ptr %37, i32 0, i32 6
  store i32 0, ptr %38, align 4
  %39 = load ptr, ptr %8, align 8
  %40 = load i32, ptr %6, align 4
  %41 = load ptr, ptr %9, align 8
  call void @wmem_tree_insert32(ptr noundef %39, i32 noundef %40, ptr noundef %41)
  %42 = load ptr, ptr %9, align 8
  ret ptr %42
}