; Function Attrs: nounwind uwtable
define hidden noundef ptr @pdu_store_sequencenumber_of_next_pdu(ptr noundef readonly captures(none) %0, i32 noundef %1, i32 noundef %2, ptr noundef %3) local_unnamed_addr #0 {
  %5 = tail call ptr @wmem_file_scope() #20
  %6 = tail call noalias ptr @wmem_alloc(ptr noundef %5, i64 noundef 40) #20
  %7 = getelementptr inbounds nuw i8, ptr %6, i64 4
  store i32 %2, ptr %7, align 4
  store i32 %1, ptr %6, align 8
  %8 = getelementptr inbounds nuw i8, ptr %0, i64 20
  %9 = load i32, ptr %8, align 4
  %10 = getelementptr inbounds nuw i8, ptr %6, i64 8
  store i32 %9, ptr %10, align 8
  %11 = getelementptr inbounds nuw i8, ptr %6, i64 32
  store i32 %9, ptr %11, align 8
  %12 = getelementptr inbounds nuw i8, ptr %6, i64 12
  store i32 %9, ptr %12, align 4
  %13 = getelementptr inbounds nuw i8, ptr %6, i64 16
  %14 = getelementptr inbounds nuw i8, ptr %0, i64 24
  tail call void @llvm.memcpy.p0.p0.i64(ptr noundef nonnull align 8 dereferenceable(16) %13, ptr noundef nonnull align 8 dereferenceable(16) %14, i64 16, i1 false)
  %15 = getelementptr inbounds nuw i8, ptr %6, i64 36
  store i32 0, ptr %15, align 4
  tail call void @wmem_tree_insert32(ptr noundef %3, i32 noundef %1, ptr noundef nonnull %6) #20
  ret ptr %6
}